target datalayout = "e-m:e-p270:32:32-p271:32:32-p272:64:64-i64:64-i128:128-f80:128-n8:16:32:64-S128"
target triple = "x86_64-pc-linux-gnu"

; Function Attrs: nounwind uwtable
define internal void @decode_deep_rle32(ptr noundef %0, ptr noundef %1, i32 noundef %2, i32 noundef %3, i32 noundef %4, i32 noundef %5) #1 {
  %7 = alloca ptr, align 8
  %8 = alloca ptr, align 8
  %9 = alloca i32, align 4
  %10 = alloca i32, align 4
  %11 = alloca i32, align 4
  %12 = alloca i32, align 4
  %13 = alloca ptr, align 8
  %14 = alloca i32, align 4
  %15 = alloca i32, align 4
  %16 = alloca i32, align 4
  %17 = alloca i32, align 4
  %18 = alloca i32, align 4
  %19 = alloca i32, align 4
  %20 = alloca i32, align 4
  %21 = alloca i32, align 4
  %22 = alloca i32, align 4
  store ptr %0, ptr %7, align 8, !tbaa !45
  store ptr %1, ptr %8, align 8, !tbaa !45
  store i32 %2, ptr %9, align 4, !tbaa !35
  store i32 %3, ptr %10, align 4, !tbaa !35
  store i32 %4, ptr %11, align 4, !tbaa !35
  store i32 %5, ptr %12, align 4, !tbaa !35
  call void @llvm.lifetime.start.p0(i64 8, ptr %13) #9
  %23 = load ptr, ptr %8, align 8, !tbaa !45
  %24 = load i32, ptr %9, align 4, !tbaa !35
  %25 = sext i32 %24 to i64
  %26 = getelementptr inbounds i8, ptr %23, i64 %25
  store ptr %26, ptr %13, align 8, !tbaa !45
  call void @llvm.lifetime.start.p0(i64 4, ptr %14) #9
  store i32 0, ptr %14, align 4, !tbaa !35
  call void @llvm.lifetime.start.p0(i64 4, ptr %15) #9
  store i32 0, ptr %15, align 4, !tbaa !35
  call void @llvm.lifetime.start.p0(i64 4, ptr %16) #9
  br label %27

27:                                               ; preds = %172, %6
  %28 = load ptr, ptr %13, align 8, !tbaa !45
  %29 = load ptr, ptr %8, align 8, !tbaa !45
  %30 = ptrtoint ptr %28 to i64
  %31 = ptrtoint ptr %29 to i64
  %32 = sub i64 %30, %31
  %33 = icmp sge i64 %32, 5
  br i1 %33, label %34, label %173

34:                                               ; preds = %27
  call void @llvm.lifetime.start.p0(i64 4, ptr %17) #9
  %35 = load ptr, ptr %8, align 8, !tbaa !45
  %36 = getelementptr inbounds nuw i8, ptr %35, i32 1
  store ptr %36, ptr %8, align 8, !tbaa !45
  %37 = load i8, ptr %35, align 1, !tbaa !34
  %38 = sext i8 %37 to i32
  store i32 %38, ptr %17, align 4, !tbaa !35
  %39 = load i32, ptr %17, align 4, !tbaa !35
  %40 = icmp sge i32 %39, 0
  br i1 %40, label %41, label %124

41:                                               ; preds = %34
  call void @llvm.lifetime.start.p0(i64 4, ptr %18) #9
  %42 = load i32, ptr %17, align 4, !tbaa !35
  %43 = add nsw i32 %42, 1
  store i32 %43, ptr %18, align 4, !tbaa !35
  store i32 0, ptr %16, align 4, !tbaa !35
  br label %44

44:                                               ; preds = %117, %41
  %45 = load i32, ptr %16, align 4, !tbaa !35
  %46 = load i32, ptr %18, align 4, !tbaa !35
  %47 = icmp slt i32 %45, %46
  br i1 %47, label %48, label %120

48:                                               ; preds = %44
  call void @llvm.lifetime.start.p0(i64 4, ptr %19) #9
  %49 = load i32, ptr %18, align 4, !tbaa !35
  %50 = load i32, ptr %16, align 4, !tbaa !35
  %51 = sub nsw i32 %49, %50
  %52 = load i32, ptr %10, align 4, !tbaa !35
  %53 = load i32, ptr %14, align 4, !tbaa !35
  %54 = sub nsw i32 %52, %53
  %55 = icmp sgt i32 %51, %54
  br i1 %55, label %56, label %60

56:                                               ; preds = %48
  %57 = load i32, ptr %10, align 4, !tbaa !35
  %58 = load i32, ptr %14, align 4, !tbaa !35
  %59 = sub nsw i32 %57, %58
  br label %64

60:                                               ; preds = %48
  %61 = load i32, ptr %18, align 4, !tbaa !35
  %62 = load i32, ptr %16, align 4, !tbaa !35
  %63 = sub nsw i32 %61, %62
  br label %64

64:                                               ; preds = %60, %56
  %65 = phi i32 [ %59, %56 ], [ %63, %60 ]
  store i32 %65, ptr %19, align 4, !tbaa !35
  %66 = load ptr, ptr %13, align 8, !tbaa !45
  %67 = load ptr, ptr %8, align 8, !tbaa !45
  %68 = ptrtoint ptr %66 to i64
  %69 = ptrtoint ptr %67 to i64
  %70 = sub i64 %68, %69
  %71 = load i32, ptr %19, align 4, !tbaa !35
  %72 = mul nsw i32 %71, 4
  %73 = sext i32 %72 to i64
  %74 = icmp slt i64 %70, %73
  br i1 %74, label %75, label %76

75:                                               ; preds = %64
  store i32 1, ptr %20, align 4
  br label %114

76:                                               ; preds = %64
  %77 = load ptr, ptr %7, align 8, !tbaa !45
  %78 = load i32, ptr %15, align 4, !tbaa !35
  %79 = load i32, ptr %12, align 4, !tbaa !35
  %80 = mul nsw i32 %78, %79
  %81 = sext i32 %80 to i64
  %82 = getelementptr inbounds i8, ptr %77, i64 %81
  %83 = load i32, ptr %14, align 4, !tbaa !35
  %84 = mul nsw i32 %83, 4
  %85 = sext i32 %84 to i64
  %86 = getelementptr inbounds i8, ptr %82, i64 %85
  %87 = load ptr, ptr %8, align 8, !tbaa !45
  %88 = load i32, ptr %19, align 4, !tbaa !35
  %89 = mul nsw i32 %88, 4
  %90 = sext i32 %89 to i64
  call void @llvm.memcpy.p0.p0.i64(ptr align 1 %86, ptr align 1 %87, i64 %90, i1 false)
  %91 = load i32, ptr %19, align 4, !tbaa !35
  %92 = mul nsw i32 %91, 4
  %93 = load ptr, ptr %8, align 8, !tbaa !45
  %94 = sext i32 %92 to i64
  %95 = getelementptr inbounds i8, ptr %93, i64 %94
  store ptr %95, ptr %8, align 8, !tbaa !45
  %96 = load i32, ptr %19, align 4, !tbaa !35
  %97 = load i32, ptr %14, align 4, !tbaa !35
  %98 = add nsw i32 %97, %96
  store i32 %98, ptr %14, align 4, !tbaa !35
  %99 = load i32, ptr %19, align 4, !tbaa !35
  %100 = load i32, ptr %16, align 4, !tbaa !35
  %101 = add nsw i32 %100, %99
  store i32 %101, ptr %16, align 4, !tbaa !35
  %102 = load i32, ptr %14, align 4, !tbaa !35
  %103 = load i32, ptr %10, align 4, !tbaa !35
  %104 = icmp sge i32 %102, %103
  br i1 %104, label %105, label %113

105:                                              ; preds = %76
  store i32 0, ptr %14, align 4, !tbaa !35
  %106 = load i32, ptr %15, align 4, !tbaa !35
  %107 = add nsw i32 %106, 1
  store i32 %107, ptr %15, align 4, !tbaa !35
  %108 = load i32, ptr %15, align 4, !tbaa !35
  %109 = load i32, ptr %11, align 4, !tbaa !35
  %110 = icmp sge i32 %108, %109
  br i1 %110, label %111, label %112

111:                                              ; preds = %105
  store i32 1, ptr %20, align 4
  br label %114

112:                                              ; preds = %105
  br label %113

113:                                              ; preds = %112, %76
  store i32 0, ptr %20, align 4
  br label %114

114:                                              ; preds = %113, %111, %75
  call void @llvm.lifetime.end.p0(i64 4, ptr %19) #9
  %115 = load i32, ptr %20, align 4
  switch i32 %115, label %121 [
    i32 0, label %116
  ]

116:                                              ; preds = %114
  br label %117

117:                                              ; preds = %116
  %118 = load i32, ptr %16, align 4, !tbaa !35
  %119 = add nsw i32 %118, 1
  store i32 %119, ptr %16, align 4, !tbaa !35
  br label %44, !llvm.loop !144

120:                                              ; preds = %44
  store i32 0, ptr %20, align 4
  br label %121

121:                                              ; preds = %120, %114
  call void @llvm.lifetime.end.p0(i64 4, ptr %18) #9
  %122 = load i32, ptr %20, align 4
  switch i32 %122, label %170 [
    i32 0, label %123
  ]

123:                                              ; preds = %121
  br label %169

124:                                              ; preds = %34
  call void @llvm.lifetime.start.p0(i64 4, ptr %21) #9
  %125 = load i32, ptr %17, align 4, !tbaa !35
  %126 = sub nsw i32 0, %125
  %127 = add nsw i32 %126, 1
  store i32 %127, ptr %21, align 4, !tbaa !35
  call void @llvm.lifetime.start.p0(i64 4, ptr %22) #9
  %128 = load ptr, ptr %8, align 8, !tbaa !45
  %129 = load i32, ptr %128, align 1, !tbaa !34
  store i32 %129, ptr %22, align 4, !tbaa !35
  store i32 0, ptr %16, align 4, !tbaa !35
  br label %130

130:                                              ; preds = %160, %124
  %131 = load i32, ptr %16, align 4, !tbaa !35
  %132 = load i32, ptr %21, align 4, !tbaa !35
  %133 = icmp slt i32 %131, %132
  br i1 %133, label %134, label %163

134:                                              ; preds = %130
  %135 = load i32, ptr %22, align 4, !tbaa !35
  %136 = load ptr, ptr %7, align 8, !tbaa !45
  %137 = load i32, ptr %15, align 4, !tbaa !35
  %138 = load i32, ptr %12, align 4, !tbaa !35
  %139 = mul nsw i32 %137, %138
  %140 = sext i32 %139 to i64
  %141 = getelementptr inbounds i8, ptr %136, i64 %140
  %142 = load i32, ptr %14, align 4, !tbaa !35
  %143 = mul nsw i32 %142, 4
  %144 = sext i32 %143 to i64
  %145 = getelementptr inbounds i8, ptr %141, i64 %144
  store i32 %135, ptr %145, align 4, !tbaa !35
  %146 = load i32, ptr %14, align 4, !tbaa !35
  %147 = add nsw i32 %146, 1
  store i32 %147, ptr %14, align 4, !tbaa !35
  %148 = load i32, ptr %14, align 4, !tbaa !35
  %149 = load i32, ptr %10, align 4, !tbaa !35
  %150 = icmp sge i32 %148, %149
  br i1 %150, label %151, label %159

151:                                              ; preds = %134
  store i32 0, ptr %14, align 4, !tbaa !35
  %152 = load i32, ptr %15, align 4, !tbaa !35
  %153 = add nsw i32 %152, 1
  store i32 %153, ptr %15, align 4, !tbaa !35
  %154 = load i32, ptr %15, align 4, !tbaa !35
  %155 = load i32, ptr %11, align 4, !tbaa !35
  %156 = icmp sge i32 %154, %155
  br i1 %156, label %157, label %158

157:                                              ; preds = %151
  store i32 1, ptr %20, align 4
  br label %166

158:                                              ; preds = %151
  br label %159

159:                                              ; preds = %158, %134
  br label %160

160:                                              ; preds = %159
  %161 = load i32, ptr %16, align 4, !tbaa !35
  %162 = add nsw i32 %161, 1
  store i32 %162, ptr %16, align 4, !tbaa !35
  br label %130, !llvm.loop !145

163:                                              ; preds = %130
  %164 = load ptr, ptr %8, align 8, !tbaa !45
  %165 = getelementptr inbounds i8, ptr %164, i64 4
  store ptr %165, ptr %8, align 8, !tbaa !45
  store i32 0, ptr %20, align 4
  br label %166

166:                                              ; preds = %163, %157
  call void @llvm.lifetime.end.p0(i64 4, ptr %22) #9
  call void @llvm.lifetime.end.p0(i64 4, ptr %21) #9
  %167 = load i32, ptr %20, align 4
  switch i32 %167, label %170 [
    i32 0, label %168
  ]

168:                                              ; preds = %166
  br label %169

169:                                              ; preds = %168, %123
  store i32 0, ptr %20, align 4
  br label %170

170:                                              ; preds = %169, %166, %121
  call void @llvm.lifetime.end.p0(i64 4, ptr %17) #9
  %171 = load i32, ptr %20, align 4
  switch i32 %171, label %174 [
    i32 0, label %172
  ]

172:                                              ; preds = %170
  br label %27, !llvm.loop !146

173:                                              ; preds = %27
  store i32 0, ptr %20, align 4
  br label %174

174:                                              ; preds = %173, %170
  call void @llvm.lifetime.end.p0(i64 4, ptr %16) #9
  call void @llvm.lifetime.end.p0(i64 4, ptr %15) #9
  call void @llvm.lifetime.end.p0(i64 4, ptr %14) #9
  call void @llvm.lifetime.end.p0(i64 8, ptr %13) #9
  %175 = load i32, ptr %20, align 4
  switch i32 %175, label %177 [
    i32 0, label %176
    i32 1, label %176
  ]

176:                                              ; preds = %174, %174
  ret void

177:                                              ; preds = %174
  unreachable
}