; Function Attrs: nofree norecurse nosync nounwind memory(argmem: readwrite) uwtable
define internal fastcc void @decode_deep_rle32(ptr noundef writeonly captures(none) %0, ptr noundef %1, i32 noundef %2, i32 noundef %3, i32 noundef %4, i32 noundef %5) unnamed_addr #6 {
  %7 = sext i32 %2 to i64
  %8 = getelementptr inbounds i8, ptr %1, i64 %7
  %9 = ptrtoint ptr %8 to i64
  %10 = icmp sgt i32 %2, 4
  br i1 %10, label %.lr.ph151, label %.thread126

.lr.ph151:                                        ; preds = %6, %.loopexit
  %.0149 = phi ptr [ %.4, %.loopexit ], [ %1, %6 ]
  %.061148 = phi i32 [ %.566, %.loopexit ], [ 0, %6 ]
  %.072147 = phi i32 [ %.577, %.loopexit ], [ 0, %6 ]
  %11 = getelementptr inbounds nuw i8, ptr %.0149, i64 1
  %12 = load i8, ptr %.0149, align 1, !tbaa !30
  %13 = sext i8 %12 to i32
  %14 = icmp sgt i8 %12, -1
  br i1 %14, label %15, label %.lr.ph.preheader

15:                                               ; preds = %.lr.ph151
  %16 = add nuw nsw i32 %13, 1
  br label %17

17:                                               ; preds = %15, %.thread
  %.1146 = phi ptr [ %11, %15 ], [ %32, %.thread ]
  %.162145 = phi i32 [ %.061148, %15 ], [ %.263109, %.thread ]
  %.173144 = phi i32 [ %.072147, %15 ], [ %.274108, %.thread ]
  %.082143 = phi i32 [ 0, %15 ], [ %37, %.thread ]
  %18 = sub i32 %16, %.082143
  %19 = sub nsw i32 %3, %.162145
  %. = tail call i32 @llvm.smin.i32(i32 %18, i32 %19)
  %20 = ptrtoint ptr %.1146 to i64
  %21 = sub i64 %9, %20
  %22 = shl nsw i32 %., 2
  %23 = sext i32 %22 to i64
  %24 = icmp slt i64 %21, %23
  br i1 %24, label %.thread126, label %25

25:                                               ; preds = %17
  %26 = mul nsw i32 %.173144, %5
  %27 = sext i32 %26 to i64
  %28 = getelementptr inbounds i8, ptr %0, i64 %27
  %29 = shl nsw i32 %.162145, 2
  %30 = sext i32 %29 to i64
  %31 = getelementptr inbounds i8, ptr %28, i64 %30
  tail call void @llvm.memcpy.p0.p0.i64(ptr align 1 %31, ptr align 1 %.1146, i64 %23, i1 false)
  %32 = getelementptr inbounds i8, ptr %.1146, i64 %23
  %33 = add nsw i32 %., %.162145
  %.not100 = icmp slt i32 %33, %3
  br i1 %.not100, label %.thread, label %34

34:                                               ; preds = %25
  %35 = add nsw i32 %.173144, 1
  %.not101 = icmp slt i32 %35, %4
  br i1 %.not101, label %.thread, label %.thread126

.thread:                                          ; preds = %25, %34
  %.263109 = phi i32 [ 0, %34 ], [ %33, %25 ]
  %.274108 = phi i32 [ %35, %34 ], [ %.173144, %25 ]
  %36 = add i32 %.082143, 1
  %37 = add i32 %36, %.
  %.not99 = icmp sgt i32 %37, %13
  br i1 %.not99, label %.loopexit, label %17, !llvm.loop !161

.lr.ph.preheader:                                 ; preds = %.lr.ph151
  %38 = sub nsw i32 1, %13
  %39 = load i32, ptr %11, align 1, !tbaa !30
  br label %.lr.ph

.lr.ph:                                           ; preds = %.lr.ph.preheader, %49
  %.7141 = phi i32 [ %.9, %49 ], [ %.061148, %.lr.ph.preheader ]
  %.779140 = phi i32 [ %.981, %49 ], [ %.072147, %.lr.ph.preheader ]
  %.284139 = phi i32 [ %50, %49 ], [ 0, %.lr.ph.preheader ]
  %40 = mul nsw i32 %.779140, %5
  %41 = sext i32 %40 to i64
  %42 = getelementptr inbounds i8, ptr %0, i64 %41
  %43 = shl nsw i32 %.7141, 2
  %44 = sext i32 %43 to i64
  %45 = getelementptr inbounds i8, ptr %42, i64 %44
  store i32 %39, ptr %45, align 4, !tbaa !55
  %46 = add nsw i32 %.7141, 1
  %.not = icmp slt i32 %46, %3
  br i1 %.not, label %49, label %47

47:                                               ; preds = %.lr.ph
  %48 = add nsw i32 %.779140, 1
  %.not97 = icmp slt i32 %48, %4
  br i1 %.not97, label %49, label %.thread126

49:                                               ; preds = %.lr.ph, %47
  %.981 = phi i32 [ %48, %47 ], [ %.779140, %.lr.ph ]
  %.9 = phi i32 [ 0, %47 ], [ %46, %.lr.ph ]
  %50 = add nuw nsw i32 %.284139, 1
  %exitcond.not = icmp eq i32 %50, %38
  br i1 %exitcond.not, label %._crit_edge, label %.lr.ph, !llvm.loop !162

._crit_edge:                                      ; preds = %49
  %51 = getelementptr inbounds nuw i8, ptr %.0149, i64 5
  br label %.loopexit

.loopexit:                                        ; preds = %.thread, %._crit_edge
  %.577 = phi i32 [ %.981, %._crit_edge ], [ %.274108, %.thread ]
  %.566 = phi i32 [ %.9, %._crit_edge ], [ %.263109, %.thread ]
  %.4 = phi ptr [ %51, %._crit_edge ], [ %32, %.thread ]
  %52 = ptrtoint ptr %.4 to i64
  %53 = sub i64 %9, %52
  %54 = icmp sgt i64 %53, 4
  br i1 %54, label %.lr.ph151, label %.thread126, !llvm.loop !163

.thread126:                                       ; preds = %.loopexit, %47, %17, %34, %6
  ret void
}